; Function Attrs: mustprogress uwtable
define internal fastcc noundef zeroext i1 @_ZN32pxrInternal_v0_24__pxrReserved__L8_IsCloseINS_7GfQuathEEEbRKNS_7VtArrayIT_EES6_(ptr noundef nonnull align 8 dereferenceable(40) %0, ptr noundef nonnull align 8 dereferenceable(40) %1) unnamed_addr #0 {
  %3 = tail call noundef i64 @_ZNK32pxrInternal_v0_24__pxrReserved__7VtArrayINS_7GfQuathEE4sizeEv(ptr noundef nonnull align 8 dereferenceable(40) %0)
  %4 = tail call noundef i64 @_ZNK32pxrInternal_v0_24__pxrReserved__7VtArrayINS_7GfQuathEE4sizeEv(ptr noundef nonnull align 8 dereferenceable(40) %1)
  %.not = icmp eq i64 %3, %4
  br i1 %.not, label %.preheader, label %_ZN32pxrInternal_v0_24__pxrReserved__L8_IsCloseINS_7GfQuathETnPNSt9enable_ifIXsr10GfIsGfQuatIT_EE5valueEvE4typeELPv0EEEbRKS3_S9_.exit.thread

.preheader:                                       ; preds = %2
  %5 = tail call noundef i64 @_ZNK32pxrInternal_v0_24__pxrReserved__7VtArrayINS_7GfQuathEE4sizeEv(ptr noundef nonnull align 8 dereferenceable(40) %0)
  %.not15 = icmp eq i64 %5, 0
  br i1 %.not15, label %_ZN32pxrInternal_v0_24__pxrReserved__L8_IsCloseINS_7GfQuathETnPNSt9enable_ifIXsr10GfIsGfQuatIT_EE5valueEvE4typeELPv0EEEbRKS3_S9_.exit.thread, label %.lr.ph

6:                                                ; preds = %_ZN32pxrInternal_v0_24__pxrReserved__L8_IsCloseINS_7GfQuathETnPNSt9enable_ifIXsr10GfIsGfQuatIT_EE5valueEvE4typeELPv0EEEbRKS3_S9_.exit
  %7 = add nuw i64 %.011, 1
  %8 = tail call noundef i64 @_ZNK32pxrInternal_v0_24__pxrReserved__7VtArrayINS_7GfQuathEE4sizeEv(ptr noundef nonnull align 8 dereferenceable(40) %0)
  %9 = icmp ult i64 %7, %8
  br i1 %9, label %.lr.ph, label %_ZN32pxrInternal_v0_24__pxrReserved__L8_IsCloseINS_7GfQuathETnPNSt9enable_ifIXsr10GfIsGfQuatIT_EE5valueEvE4typeELPv0EEEbRKS3_S9_.exit.thread, !llvm.loop !37

.lr.ph:                                           ; preds = %.preheader, %6
  %.011 = phi i64 [ %7, %6 ], [ 0, %.preheader ]
  %10 = tail call noundef nonnull align 2 dereferenceable(8) ptr @_ZNK32pxrInternal_v0_24__pxrReserved__7VtArrayINS_7GfQuathEEixEm(ptr noundef nonnull align 8 dereferenceable(40) %0, i64 noundef %.011)
  %11 = tail call noundef nonnull align 2 dereferenceable(8) ptr @_ZNK32pxrInternal_v0_24__pxrReserved__7VtArrayINS_7GfQuathEEixEm(ptr noundef nonnull align 8 dereferenceable(40) %1, i64 noundef %.011)
  %12 = getelementptr inbounds nuw i8, ptr %10, i64 6
  %.sroa.0.0.copyload.i.i = load i16, ptr %12, align 2
  %13 = getelementptr inbounds nuw i8, ptr %11, i64 6
  %.sroa.0.0.copyload.i6.i = load i16, ptr %13, align 2
  %14 = zext i16 %.sroa.0.0.copyload.i.i to i64
  %15 = getelementptr inbounds nuw [65536 x %"union.pxrInternal_v0_24__pxrReserved__::pxr_half::half::uif"], ptr @_ZN32pxrInternal_v0_24__pxrReserved__8pxr_half4half8_toFloatE, i64 0, i64 %14
  %16 = load float, ptr %15, align 4
  %17 = fpext float %16 to double
  %18 = zext i16 %.sroa.0.0.copyload.i6.i to i64
  %19 = getelementptr inbounds nuw [65536 x %"union.pxrInternal_v0_24__pxrReserved__::pxr_half::half::uif"], ptr @_ZN32pxrInternal_v0_24__pxrReserved__8pxr_half4half8_toFloatE, i64 0, i64 %18
  %20 = load float, ptr %19, align 4
  %21 = fpext float %20 to double
  %22 = fsub double %17, %21
  %23 = tail call double @llvm.fabs.f64(double %22)
  %24 = fcmp olt double %23, 1.000000e-02
  br i1 %24, label %.preheader.i, label %_ZN32pxrInternal_v0_24__pxrReserved__L8_IsCloseINS_7GfQuathETnPNSt9enable_ifIXsr10GfIsGfQuatIT_EE5valueEvE4typeELPv0EEEbRKS3_S9_.exit.thread

.preheader.i:                                     ; preds = %.lr.ph, %.preheader.i
  %.08.i.i = phi i64 [ %38, %.preheader.i ], [ 0, %.lr.ph ]
  %25 = getelementptr inbounds nuw [3 x %"class.pxrInternal_v0_24__pxrReserved__::pxr_half::half"], ptr %10, i64 0, i64 %.08.i.i
  %26 = getelementptr inbounds nuw [3 x %"class.pxrInternal_v0_24__pxrReserved__::pxr_half::half"], ptr %11, i64 0, i64 %.08.i.i
  %.val.i.i = load i16, ptr %25, align 2
  %.val7.i.i = load i16, ptr %26, align 2
  %27 = zext i16 %.val.i.i to i64
  %28 = getelementptr inbounds nuw [65536 x %"union.pxrInternal_v0_24__pxrReserved__::pxr_half::half::uif"], ptr @_ZN32pxrInternal_v0_24__pxrReserved__8pxr_half4half8_toFloatE, i64 0, i64 %27
  %29 = load float, ptr %28, align 4
  %30 = fpext float %29 to double
  %31 = zext i16 %.val7.i.i to i64
  %32 = getelementptr inbounds nuw [65536 x %"union.pxrInternal_v0_24__pxrReserved__::pxr_half::half::uif"], ptr @_ZN32pxrInternal_v0_24__pxrReserved__8pxr_half4half8_toFloatE, i64 0, i64 %31
  %33 = load float, ptr %32, align 4
  %34 = fpext float %33 to double
  %35 = fsub double %30, %34
  %36 = tail call double @llvm.fabs.f64(double %35)
  %37 = fcmp olt double %36, 1.000000e-02
  %38 = add nuw nsw i64 %.08.i.i, 1
  %exitcond.i.i = icmp ne i64 %38, 3
  %or.cond.not.i.i = select i1 %37, i1 %exitcond.i.i, i1 false
  br i1 %or.cond.not.i.i, label %.preheader.i, label %_ZN32pxrInternal_v0_24__pxrReserved__L8_IsCloseINS_7GfQuathETnPNSt9enable_ifIXsr10GfIsGfQuatIT_EE5valueEvE4typeELPv0EEEbRKS3_S9_.exit, !llvm.loop !18

_ZN32pxrInternal_v0_24__pxrReserved__L8_IsCloseINS_7GfQuathETnPNSt9enable_ifIXsr10GfIsGfQuatIT_EE5valueEvE4typeELPv0EEEbRKS3_S9_.exit: ; preds = %.preheader.i
  br i1 %37, label %6, label %_ZN32pxrInternal_v0_24__pxrReserved__L8_IsCloseINS_7GfQuathETnPNSt9enable_ifIXsr10GfIsGfQuatIT_EE5valueEvE4typeELPv0EEEbRKS3_S9_.exit.thread

_ZN32pxrInternal_v0_24__pxrReserved__L8_IsCloseINS_7GfQuathETnPNSt9enable_ifIXsr10GfIsGfQuatIT_EE5valueEvE4typeELPv0EEEbRKS3_S9_.exit.thread: ; preds = %_ZN32pxrInternal_v0_24__pxrReserved__L8_IsCloseINS_7GfQuathETnPNSt9enable_ifIXsr10GfIsGfQuatIT_EE5valueEvE4typeELPv0EEEbRKS3_S9_.exit, %6, %.lr.ph, %.preheader, %2
  %.09 = phi i1 [ false, %2 ], [ true, %.preheader ], [ false, %_ZN32pxrInternal_v0_24__pxrReserved__L8_IsCloseINS_7GfQuathETnPNSt9enable_ifIXsr10GfIsGfQuatIT_EE5valueEvE4typeELPv0EEEbRKS3_S9_.exit ], [ true, %6 ], [ false, %.lr.ph ]
  ret i1 %.09
}